; Function Attrs: nounwind uwtable
define noalias nonnull ptr @l_Lean_MonadHashMapCacheAdapter_instMonadCacheOfMonad___rarg(ptr noundef %0, ptr noundef %1, ptr noundef %2, ptr noundef %3) #0 {
  %5 = ptrtoint ptr %3 to i64
  %6 = and i64 %5, 1
  %.not = icmp eq i64 %6, 0
  br i1 %.not, label %7, label %lean_inc.exit23

7:                                                ; preds = %4
  %.val.i = load i32, ptr %3, align 4, !tbaa !8
  %8 = icmp sgt i32 %.val.i, 0
  br i1 %8, label %9, label %11, !prof !11

9:                                                ; preds = %7
  %10 = add nuw i32 %.val.i, 1
  store i32 %10, ptr %3, align 4, !tbaa !8
  br label %lean_inc.exit23

11:                                               ; preds = %7
  %.not.i = icmp eq i32 %.val.i, 0
  br i1 %.not.i, label %lean_inc.exit23, label %12

12:                                               ; preds = %11
  tail call void @lean_inc_ref_cold(ptr noundef nonnull %3) #4
  br label %lean_inc.exit23

lean_inc.exit23:                                  ; preds = %12, %11, %9, %4
  %13 = ptrtoint ptr %1 to i64
  %14 = and i64 %13, 1
  %.not31 = icmp eq i64 %14, 0
  br i1 %.not31, label %15, label %lean_inc.exit22

15:                                               ; preds = %lean_inc.exit23
  %.val.i24 = load i32, ptr %1, align 4, !tbaa !8
  %16 = icmp sgt i32 %.val.i24, 0
  br i1 %16, label %17, label %19, !prof !11

17:                                               ; preds = %15
  %18 = add nuw i32 %.val.i24, 1
  store i32 %18, ptr %1, align 4, !tbaa !8
  br label %lean_inc.exit22

19:                                               ; preds = %15
  %.not.i25 = icmp eq i32 %.val.i24, 0
  br i1 %.not.i25, label %lean_inc.exit22, label %20

20:                                               ; preds = %19
  tail call void @lean_inc_ref_cold(ptr noundef nonnull %1) #4
  br label %lean_inc.exit22

lean_inc.exit22:                                  ; preds = %20, %19, %17, %lean_inc.exit23
  %21 = ptrtoint ptr %0 to i64
  %22 = and i64 %21, 1
  %.not32 = icmp eq i64 %22, 0
  br i1 %.not32, label %23, label %lean_inc.exit

23:                                               ; preds = %lean_inc.exit22
  %.val.i27 = load i32, ptr %0, align 4, !tbaa !8
  %24 = icmp sgt i32 %.val.i27, 0
  br i1 %24, label %25, label %27, !prof !11

25:                                               ; preds = %23
  %26 = add nuw i32 %.val.i27, 1
  store i32 %26, ptr %0, align 4, !tbaa !8
  br label %lean_inc.exit

27:                                               ; preds = %23
  %.not.i28 = icmp eq i32 %.val.i27, 0
  br i1 %.not.i28, label %lean_inc.exit, label %28

28:                                               ; preds = %27
  tail call void @lean_inc_ref_cold(ptr noundef nonnull %0) #4
  br label %lean_inc.exit

lean_inc.exit:                                    ; preds = %28, %27, %25, %lean_inc.exit22
  tail call void @lean_inc_heartbeat() #4
  %29 = tail call noalias ptr @mi_malloc_small(i64 noundef 56) #4
  %30 = icmp eq ptr %29, null
  br i1 %30, label %31, label %lean_alloc_closure.exit

31:                                               ; preds = %lean_inc.exit
  tail call void @lean_internal_panic_out_of_memory() #5
  unreachable

lean_alloc_closure.exit:                          ; preds = %lean_inc.exit
  %32 = getelementptr inbounds nuw i8, ptr %29, i64 4
  store i32 1, ptr %29, align 4, !tbaa !8
  store i32 -184549320, ptr %32, align 4
  %33 = getelementptr inbounds nuw i8, ptr %29, i64 8
  store ptr @l_Lean_MonadHashMapCacheAdapter_findCached_x3f___rarg, ptr %33, align 8, !tbaa !4
  %34 = getelementptr inbounds nuw i8, ptr %29, i64 16
  store i16 5, ptr %34, align 8, !tbaa !12
  %35 = getelementptr inbounds nuw i8, ptr %29, i64 18
  store i16 4, ptr %35, align 2, !tbaa !12
  %36 = getelementptr inbounds nuw i8, ptr %29, i64 24
  store ptr %0, ptr %36, align 8, !tbaa !4
  %37 = getelementptr inbounds nuw i8, ptr %29, i64 32
  store ptr %1, ptr %37, align 8, !tbaa !4
  %38 = getelementptr inbounds nuw i8, ptr %29, i64 40
  store ptr %2, ptr %38, align 8, !tbaa !4
  %39 = getelementptr inbounds nuw i8, ptr %29, i64 48
  store ptr %3, ptr %39, align 8, !tbaa !4
  tail call void @lean_inc_heartbeat() #4
  %40 = tail call noalias ptr @mi_malloc_small(i64 noundef 48) #4
  %41 = icmp eq ptr %40, null
  br i1 %41, label %42, label %lean_alloc_closure.exit30

42:                                               ; preds = %lean_alloc_closure.exit
  tail call void @lean_internal_panic_out_of_memory() #5
  unreachable

lean_alloc_closure.exit30:                        ; preds = %lean_alloc_closure.exit
  %43 = getelementptr inbounds nuw i8, ptr %40, i64 4
  store i32 1, ptr %40, align 4, !tbaa !8
  store i32 -184549328, ptr %43, align 4
  %44 = getelementptr inbounds nuw i8, ptr %40, i64 8
  store ptr @l_Lean_MonadHashMapCacheAdapter_cache___rarg, ptr %44, align 8, !tbaa !4
  %45 = getelementptr inbounds nuw i8, ptr %40, i64 16
  store i16 5, ptr %45, align 8, !tbaa !12
  %46 = getelementptr inbounds nuw i8, ptr %40, i64 18
  store i16 3, ptr %46, align 2, !tbaa !12
  %47 = getelementptr inbounds nuw i8, ptr %40, i64 24
  store ptr %0, ptr %47, align 8, !tbaa !4
  %48 = getelementptr inbounds nuw i8, ptr %40, i64 32
  store ptr %1, ptr %48, align 8, !tbaa !4
  %49 = getelementptr inbounds nuw i8, ptr %40, i64 40
  store ptr %3, ptr %49, align 8, !tbaa !4
  tail call void @lean_inc_heartbeat() #4
  %50 = tail call noalias ptr @mi_malloc_small(i64 noundef 24) #4
  %51 = icmp eq ptr %50, null
  br i1 %51, label %52, label %lean_alloc_ctor.exit

52:                                               ; preds = %lean_alloc_closure.exit30
  tail call void @lean_internal_panic_out_of_memory() #5
  unreachable

lean_alloc_ctor.exit:                             ; preds = %lean_alloc_closure.exit30
  %53 = getelementptr inbounds nuw i8, ptr %50, i64 4
  store i32 1, ptr %50, align 4, !tbaa !8
  store i32 131096, ptr %53, align 4
  %54 = getelementptr inbounds nuw i8, ptr %50, i64 8
  store ptr %29, ptr %54, align 8, !tbaa !4
  %55 = getelementptr inbounds nuw i8, ptr %50, i64 16
  store ptr %40, ptr %55, align 8, !tbaa !4
  ret ptr %50
}